; Function Attrs: nounwind uwtable
define internal range(i32 -3, 1) i32 @imap_exec_m(ptr noundef nonnull %0, ptr noundef nonnull %1, ptr readnone captures(none) %2, ...) unnamed_addr #0 {
  %4 = alloca [1 x %struct.__va_list_tag], align 16
  call void @llvm.lifetime.start.p0(i64 24, ptr nonnull %4) #22
  call void @llvm.va_start.p0(ptr nonnull %4)
  %5 = call fastcc ptr @issue_imap_cmd(ptr noundef nonnull %0, ptr noundef nonnull %1, ptr noundef nonnull @.str.131, ptr noundef %4)
  call void @llvm.va_end.p0(ptr nonnull %4)
  %.not = icmp eq ptr %5, null
  br i1 %.not, label %8, label %6

6:                                                ; preds = %3
  %7 = call fastcc i32 @get_cmd_result(ptr noundef nonnull %0, ptr noundef nonnull %5)
  %switch.selectcmp = icmp eq i32 %7, 1
  %switch.select = sext i1 %switch.selectcmp to i32
  %switch.selectcmp7 = icmp eq i32 %7, 2
  %switch.select8 = select i1 %switch.selectcmp7, i32 -3, i32 %switch.select
  br label %8

8:                                                ; preds = %6, %3
  %.0 = phi i32 [ -3, %3 ], [ %switch.select8, %6 ]
  call void @llvm.lifetime.end.p0(i64 24, ptr nonnull %4) #22
  ret i32 %.0
}